target datalayout = "e-m:e-p270:32:32-p271:32:32-p272:64:64-i64:64-i128:128-f80:128-n8:16:32:64-S128"
target triple = "x86_64-pc-linux-gnu"

%"struct.Luau::CodeGen::X64::RegisterX64" = type { i8 }
%"struct.Luau::CodeGen::X64::OperandX64" = type { i8, %"struct.Luau::CodeGen::X64::RegisterX64", %"struct.Luau::CodeGen::X64::RegisterX64", i8, i32 }

@.str.77 = private unnamed_addr constant [6 x i8] c"vmovq\00", align 1

; Function Attrs: mustprogress uwtable
define dso_local void @_ZN4Luau7CodeGen3X6418AssemblyBuilderX645vmovqENS1_10OperandX64ES3_(ptr noundef nonnull align 8 dereferenceable(252) %0, i64 %1, i64 %2) #0 align 2 {
  %4 = alloca %"struct.Luau::CodeGen::X64::OperandX64", align 4
  %5 = alloca %"struct.Luau::CodeGen::X64::OperandX64", align 4
  %6 = alloca ptr, align 8
  %7 = alloca %"struct.Luau::CodeGen::X64::OperandX64", align 4
  %8 = alloca %"struct.Luau::CodeGen::X64::OperandX64", align 4
  %9 = alloca %"struct.Luau::CodeGen::X64::OperandX64", align 4
  %10 = alloca %"struct.Luau::CodeGen::X64::OperandX64", align 4
  store i64 %1, ptr %4, align 4
  store i64 %2, ptr %5, align 4
  store ptr %0, ptr %6, align 8, !tbaa !4
  %11 = load ptr, ptr %6, align 8
  %12 = getelementptr inbounds nuw %"struct.Luau::CodeGen::X64::OperandX64", ptr %4, i32 0, i32 2
  %13 = load i8, ptr %12, align 2
  %14 = and i8 %13, 7
  %15 = icmp eq i8 %14, 5
  br i1 %15, label %16, label %19

16:                                               ; preds = %3
  call void @llvm.memcpy.p0.p0.i64(ptr align 4 %7, ptr align 4 %4, i64 8, i1 false), !tbaa.struct !76
  call void @llvm.memcpy.p0.p0.i64(ptr align 4 %8, ptr align 4 %5, i64 8, i1 false), !tbaa.struct !76
  %17 = load i64, ptr %7, align 4
  %18 = load i64, ptr %8, align 4
  call void @_ZN4Luau7CodeGen3X6418AssemblyBuilderX648placeAvxEPKcNS1_10OperandX64ES5_hbhh(ptr noundef nonnull align 8 dereferenceable(252) %11, ptr noundef @.str.77, i64 %17, i64 %18, i8 noundef zeroext 110, i1 noundef zeroext true, i8 noundef zeroext 1, i8 noundef zeroext 1)
  br label %29

19:                                               ; preds = %3
  %20 = getelementptr inbounds nuw %"struct.Luau::CodeGen::X64::OperandX64", ptr %4, i32 0, i32 2
  %21 = load i8, ptr %20, align 2
  %22 = and i8 %21, 7
  %23 = icmp eq i8 %22, 4
  br i1 %23, label %24, label %27

24:                                               ; preds = %19
  call void @llvm.memcpy.p0.p0.i64(ptr align 4 %9, ptr align 4 %5, i64 8, i1 false), !tbaa.struct !76
  call void @llvm.memcpy.p0.p0.i64(ptr align 4 %10, ptr align 4 %4, i64 8, i1 false), !tbaa.struct !76
  %25 = load i64, ptr %9, align 4
  %26 = load i64, ptr %10, align 4
  call void @_ZN4Luau7CodeGen3X6418AssemblyBuilderX648placeAvxEPKcNS1_10OperandX64ES5_hbhh(ptr noundef nonnull align 8 dereferenceable(252) %11, ptr noundef @.str.77, i64 %25, i64 %26, i8 noundef zeroext 126, i1 noundef zeroext true, i8 noundef zeroext 1, i8 noundef zeroext 1)
  br label %28

27:                                               ; preds = %19
  br label %28

28:                                               ; preds = %27, %24
  br label %29

29:                                               ; preds = %28, %16
  ret void
}