; Function Attrs: mustprogress uwtable
define dso_local void @_ZN4Luau7CodeGen3X6418AssemblyBuilderX645vmovqENS1_10OperandX64ES3_(ptr noundef nonnull align 8 dereferenceable(252) %0, i64 %1, i64 %2) local_unnamed_addr #0 align 2 {
  %.sroa.3.0.extract.shift = lshr i64 %1, 16
  %.sroa.3.0.extract.trunc = trunc i64 %.sroa.3.0.extract.shift to i8
  %4 = and i8 %.sroa.3.0.extract.trunc, 7
  switch i8 %4, label %7 [
    i8 5, label %5
    i8 4, label %6
  ]

5:                                                ; preds = %3
  tail call void @_ZN4Luau7CodeGen3X6418AssemblyBuilderX648placeAvxEPKcNS1_10OperandX64ES5_hbhh(ptr noundef nonnull align 8 dereferenceable(252) %0, ptr noundef nonnull @.str.77, i64 %1, i64 %2, i8 noundef zeroext 110, i1 noundef zeroext true, i8 noundef zeroext 1, i8 noundef zeroext 1)
  br label %7

6:                                                ; preds = %3
  tail call void @_ZN4Luau7CodeGen3X6418AssemblyBuilderX648placeAvxEPKcNS1_10OperandX64ES5_hbhh(ptr noundef nonnull align 8 dereferenceable(252) %0, ptr noundef nonnull @.str.77, i64 %2, i64 %1, i8 noundef zeroext 126, i1 noundef zeroext true, i8 noundef zeroext 1, i8 noundef zeroext 1)
  br label %7

7:                                                ; preds = %3, %6, %5
  ret void
}